cmultiprocessing.managers
RebuildProxy
p0
(cmultiprocessing.managers
ListProxy
p1
ccopy_reg
_reconstructor
p2
(cmultiprocessing.managers
Token
p3
c__builtin__
object
p4
Ntp5
Rp6
(S'list'
p7
S'/tmp/pymp-ZaXTMq/listener-GLaWxP'
p8
S'fbd9fc8'
p9
tp10
bS'pickle'
p11
(dp12
tp13
Rp14
.